target datalayout = "e-m:e-p270:32:32-p271:32:32-p272:64:64-i64:64-i128:128-f80:128-n8:16:32:64-S128"
target triple = "x86_64-pc-linux-gnu"

%struct.ItemPointerData = type { %struct.BlockIdData, i16 }
%struct.BlockIdData = type { i16, i16 }
%struct.ScanKeyData = type { i32, i16, i16, i32, i32, %struct.FmgrInfo, i64 }
%struct.FmgrInfo = type { ptr, i32, i16, i8, i8, i8, ptr, ptr, ptr }
%struct.BTArrayKeyInfo = type { i32, i32, i32, ptr }
%struct.IndexScanDescData = type { ptr, ptr, ptr, i32, i32, ptr, ptr, i8, i8, i8, i8, i8, ptr, ptr, ptr, ptr, ptr, %struct.ItemPointerData, i8, ptr, i8, ptr, ptr, i8, ptr }
%struct.BTScanOpaqueData = type { i8, i32, ptr, i32, i8, i8, i8, ptr, ptr, ptr, ptr, i32, ptr, ptr, i32, %struct.BTScanPosData, %struct.BTScanPosData }
%struct.BTScanPosData = type { i32, i32, i32, i32, i64, i32, i32, i8, i8, i32, i32, i32, [1358 x %struct.BTScanPosItem] }
%struct.BTScanPosItem = type { %struct.ItemPointerData, i16, i16 }

; Function Attrs: nounwind uwtable
define dso_local void @_bt_start_array_keys(ptr noundef %0, i32 noundef %1) #0 {
  %3 = alloca ptr, align 8
  %4 = alloca i32, align 4
  %5 = alloca ptr, align 8
  %6 = alloca i32, align 4
  %7 = alloca ptr, align 8
  %8 = alloca ptr, align 8
  store ptr %0, ptr %3, align 8
  store i32 %1, ptr %4, align 4
  call void @llvm.lifetime.start.p0(i64 8, ptr %5) #8
  %9 = load ptr, ptr %3, align 8
  %10 = getelementptr inbounds nuw %struct.IndexScanDescData, ptr %9, i32 0, i32 12
  %11 = load ptr, ptr %10, align 8
  store ptr %11, ptr %5, align 8
  call void @llvm.lifetime.start.p0(i64 4, ptr %6) #8
  store i32 0, ptr %6, align 4
  br label %12

12:                                               ; preds = %57, %2
  %13 = load i32, ptr %6, align 4
  %14 = load ptr, ptr %5, align 8
  %15 = getelementptr inbounds nuw %struct.BTScanOpaqueData, ptr %14, i32 0, i32 3
  %16 = load i32, ptr %15, align 8
  %17 = icmp slt i32 %13, %16
  br i1 %17, label %18, label %60

18:                                               ; preds = %12
  call void @llvm.lifetime.start.p0(i64 8, ptr %7) #8
  %19 = load ptr, ptr %5, align 8
  %20 = getelementptr inbounds nuw %struct.BTScanOpaqueData, ptr %19, i32 0, i32 7
  %21 = load ptr, ptr %20, align 8
  %22 = load i32, ptr %6, align 4
  %23 = sext i32 %22 to i64
  %24 = getelementptr inbounds %struct.BTArrayKeyInfo, ptr %21, i64 %23
  store ptr %24, ptr %7, align 8
  call void @llvm.lifetime.start.p0(i64 8, ptr %8) #8
  %25 = load ptr, ptr %5, align 8
  %26 = getelementptr inbounds nuw %struct.BTScanOpaqueData, ptr %25, i32 0, i32 2
  %27 = load ptr, ptr %26, align 8
  %28 = load ptr, ptr %7, align 8
  %29 = getelementptr inbounds nuw %struct.BTArrayKeyInfo, ptr %28, i32 0, i32 0
  %30 = load i32, ptr %29, align 8
  %31 = sext i32 %30 to i64
  %32 = getelementptr inbounds %struct.ScanKeyData, ptr %27, i64 %31
  store ptr %32, ptr %8, align 8
  %33 = load i32, ptr %4, align 4
  %34 = icmp eq i32 %33, -1
  br i1 %34, label %35, label %42

35:                                               ; preds = %18
  %36 = load ptr, ptr %7, align 8
  %37 = getelementptr inbounds nuw %struct.BTArrayKeyInfo, ptr %36, i32 0, i32 2
  %38 = load i32, ptr %37, align 8
  %39 = sub i32 %38, 1
  %40 = load ptr, ptr %7, align 8
  %41 = getelementptr inbounds nuw %struct.BTArrayKeyInfo, ptr %40, i32 0, i32 1
  store i32 %39, ptr %41, align 4
  br label %45

42:                                               ; preds = %18
  %43 = load ptr, ptr %7, align 8
  %44 = getelementptr inbounds nuw %struct.BTArrayKeyInfo, ptr %43, i32 0, i32 1
  store i32 0, ptr %44, align 4
  br label %45

45:                                               ; preds = %42, %35
  %46 = load ptr, ptr %7, align 8
  %47 = getelementptr inbounds nuw %struct.BTArrayKeyInfo, ptr %46, i32 0, i32 3
  %48 = load ptr, ptr %47, align 8
  %49 = load ptr, ptr %7, align 8
  %50 = getelementptr inbounds nuw %struct.BTArrayKeyInfo, ptr %49, i32 0, i32 1
  %51 = load i32, ptr %50, align 4
  %52 = sext i32 %51 to i64
  %53 = getelementptr inbounds i64, ptr %48, i64 %52
  %54 = load i64, ptr %53, align 8
  %55 = load ptr, ptr %8, align 8
  %56 = getelementptr inbounds nuw %struct.ScanKeyData, ptr %55, i32 0, i32 6
  store i64 %54, ptr %56, align 8
  call void @llvm.lifetime.end.p0(i64 8, ptr %8) #8
  call void @llvm.lifetime.end.p0(i64 8, ptr %7) #8
  br label %57

57:                                               ; preds = %45
  %58 = load i32, ptr %6, align 4
  %59 = add i32 %58, 1
  store i32 %59, ptr %6, align 4
  br label %12, !llvm.loop !10

60:                                               ; preds = %12
  %61 = load ptr, ptr %5, align 8
  %62 = getelementptr inbounds nuw %struct.BTScanOpaqueData, ptr %61, i32 0, i32 6
  store i8 0, ptr %62, align 2
  %63 = load ptr, ptr %5, align 8
  %64 = getelementptr inbounds nuw %struct.BTScanOpaqueData, ptr %63, i32 0, i32 5
  store i8 0, ptr %64, align 1
  call void @llvm.lifetime.end.p0(i64 4, ptr %6) #8
  call void @llvm.lifetime.end.p0(i64 8, ptr %5) #8
  ret void
}