; Function Attrs: nofree norecurse nosync nounwind memory(readwrite, inaccessiblemem: none) uwtable
define dso_local void @_bt_start_array_keys(ptr noundef readonly captures(none) %0, i32 noundef %1) local_unnamed_addr #5 {
  %3 = getelementptr inbounds nuw i8, ptr %0, i64 56
  %4 = load ptr, ptr %3, align 8
  %5 = getelementptr inbounds nuw i8, ptr %4, i64 16
  %6 = load i32, ptr %5, align 8
  %7 = icmp sgt i32 %6, 0
  br i1 %7, label %.lr.ph, label %._crit_edge

.lr.ph:                                           ; preds = %2
  %8 = getelementptr inbounds nuw i8, ptr %4, i64 24
  %9 = getelementptr inbounds nuw i8, ptr %4, i64 8
  %10 = icmp eq i32 %1, -1
  br i1 %10, label %.lr.ph.split.us, label %.lr.ph.split

.lr.ph.split.us:                                  ; preds = %.lr.ph, %.lr.ph.split.us
  %indvars.iv19 = phi i64 [ %indvars.iv.next20, %.lr.ph.split.us ], [ 0, %.lr.ph ]
  %11 = load ptr, ptr %8, align 8
  %12 = getelementptr inbounds nuw %struct.BTArrayKeyInfo, ptr %11, i64 %indvars.iv19
  %13 = load ptr, ptr %9, align 8
  %14 = load i32, ptr %12, align 8
  %15 = sext i32 %14 to i64
  %16 = getelementptr inbounds nuw i8, ptr %12, i64 8
  %17 = load i32, ptr %16, align 8
  %18 = add i32 %17, -1
  %19 = getelementptr inbounds nuw i8, ptr %12, i64 4
  store i32 %18, ptr %19, align 4
  %20 = getelementptr inbounds nuw i8, ptr %12, i64 16
  %21 = load ptr, ptr %20, align 8
  %22 = sext i32 %18 to i64
  %23 = getelementptr inbounds i64, ptr %21, i64 %22
  %24 = load i64, ptr %23, align 8
  %25 = getelementptr inbounds %struct.ScanKeyData, ptr %13, i64 %15, i32 6
  store i64 %24, ptr %25, align 8
  %indvars.iv.next20 = add nuw nsw i64 %indvars.iv19, 1
  %26 = load i32, ptr %5, align 8
  %27 = sext i32 %26 to i64
  %28 = icmp slt i64 %indvars.iv.next20, %27
  br i1 %28, label %.lr.ph.split.us, label %._crit_edge, !llvm.loop !10

.lr.ph.split:                                     ; preds = %.lr.ph, %.lr.ph.split
  %indvars.iv = phi i64 [ %indvars.iv.next, %.lr.ph.split ], [ 0, %.lr.ph ]
  %29 = load ptr, ptr %8, align 8
  %30 = getelementptr inbounds nuw %struct.BTArrayKeyInfo, ptr %29, i64 %indvars.iv
  %31 = load ptr, ptr %9, align 8
  %32 = load i32, ptr %30, align 8
  %33 = sext i32 %32 to i64
  %34 = getelementptr inbounds nuw i8, ptr %30, i64 4
  store i32 0, ptr %34, align 4
  %35 = getelementptr inbounds nuw i8, ptr %30, i64 16
  %36 = load ptr, ptr %35, align 8
  %37 = load i64, ptr %36, align 8
  %38 = getelementptr inbounds %struct.ScanKeyData, ptr %31, i64 %33, i32 6
  store i64 %37, ptr %38, align 8
  %indvars.iv.next = add nuw nsw i64 %indvars.iv, 1
  %39 = load i32, ptr %5, align 8
  %40 = sext i32 %39 to i64
  %41 = icmp slt i64 %indvars.iv.next, %40
  br i1 %41, label %.lr.ph.split, label %._crit_edge, !llvm.loop !10

._crit_edge:                                      ; preds = %.lr.ph.split, %.lr.ph.split.us, %2
  %42 = getelementptr inbounds nuw i8, ptr %4, i64 22
  store i8 0, ptr %42, align 2
  %43 = getelementptr inbounds nuw i8, ptr %4, i64 21
  store i8 0, ptr %43, align 1
  ret void
}